; Function Attrs: uwtable
define void @_ZThn16_NK19QualityMapperFilter10filterInfoEi(ptr dead_on_unwind noalias nocapture writable writeonly sret(%class.QString) align 8 %0, ptr nocapture noundef readnone %1, i32 noundef %2) unnamed_addr #12 align 2 {
  tail call void @llvm.experimental.noalias.scope.decl(metadata !23)
  %cond.i = icmp eq i32 %2, 0
  br i1 %cond.i, label %4, label %6

4:                                                ; preds = %3
  %5 = tail call noundef ptr @_ZN7QString16fromAscii_helperEPKci(ptr noundef nonnull @.str.10, i32 noundef 273), !noalias !23
  br label %_ZNK19QualityMapperFilter10filterInfoEi.exit

6:                                                ; preds = %3
  %7 = tail call noundef ptr @_ZN7QString16fromAscii_helperEPKci(ptr noundef nonnull @.str.11, i32 noundef 0), !noalias !23
  br label %_ZNK19QualityMapperFilter10filterInfoEi.exit

_ZNK19QualityMapperFilter10filterInfoEi.exit:     ; preds = %4, %6
  %storemerge.i = phi ptr [ %7, %6 ], [ %5, %4 ]
  store ptr %storemerge.i, ptr %0, align 8, !alias.scope !23
  ret void
}